; Function Attrs: nofree nounwind uwtable
define void @Abc_TtStoreDump(ptr noundef %0, ptr noundef readonly captures(none) %1, i32 noundef %2) local_unnamed_addr #2 {
  %4 = tail call noalias ptr @fopen(ptr noundef %0, ptr noundef nonnull @.str.4)
  %5 = icmp eq ptr %4, null
  br i1 %5, label %12, label %.preheader

.preheader:                                       ; preds = %3
  %6 = getelementptr inbounds nuw i8, ptr %1, i64 24
  %7 = getelementptr i8, ptr %1, i64 4
  %.val13 = load i32, ptr %7, align 4, !tbaa !35
  %8 = icmp sgt i32 %.val13, 0
  br i1 %8, label %.lr.ph, label %.critedge

.lr.ph:                                           ; preds = %.preheader
  %9 = getelementptr inbounds nuw i8, ptr %1, i64 8
  %10 = getelementptr inbounds nuw i8, ptr %1, i64 12
  %11 = sext i32 %2 to i64
  br label %14

12:                                               ; preds = %3
  %13 = tail call i32 (ptr, ...) @printf(ptr noundef nonnull dereferenceable(1) @.str.5, ptr noundef %0)
  br label %32

14:                                               ; preds = %.lr.ph, %21
  %.014 = phi i32 [ 0, %.lr.ph ], [ %29, %21 ]
  %15 = load ptr, ptr %6, align 8, !tbaa !38
  %16 = load i32, ptr %9, align 8, !tbaa !39
  %17 = lshr i32 %.014, %16
  %18 = zext nneg i32 %17 to i64
  %19 = getelementptr inbounds nuw ptr, ptr %15, i64 %18
  %20 = load ptr, ptr %19, align 8, !tbaa !19
  %.not = icmp eq ptr %20, null
  br i1 %.not, label %.critedge, label %21

21:                                               ; preds = %14
  %22 = load i32, ptr %10, align 4, !tbaa !40
  %23 = and i32 %22, %.014
  %24 = load i32, ptr %1, align 8, !tbaa !41
  %25 = mul nsw i32 %23, %24
  %26 = sext i32 %25 to i64
  %27 = getelementptr inbounds i64, ptr %20, i64 %26
  %28 = tail call i64 @fwrite(ptr noundef nonnull %27, i64 noundef %11, i64 noundef 1, ptr noundef nonnull %4)
  %29 = add nuw nsw i32 %.014, 1
  %.val = load i32, ptr %7, align 4, !tbaa !35
  %30 = icmp slt i32 %29, %.val
  br i1 %30, label %14, label %.critedge, !llvm.loop !42

.critedge:                                        ; preds = %14, %21, %.preheader
  %31 = tail call i32 @fclose(ptr noundef nonnull %4)
  br label %32

32:                                               ; preds = %.critedge, %12
  ret void
}